; ModuleID = '22/354.c'
source_filename = "22/354.c"
target datalayout = "e-m:e-p270:32:32-p271:32:32-p272:64:64-i64:64-f80:128-n8:16:32:64-S128"
target triple = "x86_64-pc-linux-gnu"

@.str = private unnamed_addr constant [3 x i8] c"%d\00", align 1
@.str.1 = private unnamed_addr constant [3 x i8] c"No\00", align 1

; Function Attrs: noinline nounwind uwtable
define dso_local void @main() #0 {
  %1 = alloca i32, align 4
  %2 = alloca i32, align 4
  %3 = alloca i32, align 4
  %4 = alloca i32, align 4
  %5 = alloca [301 x i32], align 16
  %6 = alloca i32, align 4
  %7 = getelementptr inbounds [301 x i32], [301 x i32]* %5, i64 0, i64 0
  %8 = call i32 (i8*, ...) @__isoc99_scanf(i8* getelementptr inbounds ([3 x i8], [3 x i8]* @.str, i64 0, i64 0), i32* %7)
  store i32 1, i32* %1, align 4
  br label %9

9:                                                ; preds = %17, %0
  %10 = call i32 @getchar()
  %11 = icmp ne i32 %10, 10
  br i1 %11, label %12, label %20

12:                                               ; preds = %9
  %13 = load i32, i32* %1, align 4
  %14 = sext i32 %13 to i64
  %15 = getelementptr inbounds [301 x i32], [301 x i32]* %5, i64 0, i64 %14
  %16 = call i32 (i8*, ...) @__isoc99_scanf(i8* getelementptr inbounds ([3 x i8], [3 x i8]* @.str, i64 0, i64 0), i32* %15)
  br label %17

17:                                               ; preds = %12
  %18 = load i32, i32* %1, align 4
  %19 = add nsw i32 %18, 1
  store i32 %19, i32* %1, align 4
  br label %9

20:                                               ; preds = %9
  %21 = load i32, i32* %1, align 4
  store i32 %21, i32* %6, align 4
  store i32 0, i32* %2, align 4
  br label %22

22:                                               ; preds = %36, %20
  br i1 true, label %23, label %39

23:                                               ; preds = %22
  %24 = load i32, i32* %2, align 4
  %25 = sext i32 %24 to i64
  %26 = getelementptr inbounds [301 x i32], [301 x i32]* %5, i64 0, i64 %25
  %27 = load i32, i32* %26, align 4
  %28 = load i32, i32* %2, align 4
  %29 = add nsw i32 %28, 1
  %30 = sext i32 %29 to i64
  %31 = getelementptr inbounds [301 x i32], [301 x i32]* %5, i64 0, i64 %30
  %32 = load i32, i32* %31, align 4
  %33 = icmp ne i32 %27, %32
  br i1 %33, label %34, label %35

34:                                               ; preds = %23
  br label %39

35:                                               ; preds = %23
  br label %36

36:                                               ; preds = %35
  %37 = load i32, i32* %2, align 4
  %38 = add nsw i32 %37, 1
  store i32 %38, i32* %2, align 4
  br label %22

39:                                               ; preds = %34, %22
  %40 = load i32, i32* %1, align 4
  %41 = icmp eq i32 %40, 1
  br i1 %41, label %47, label %42

42:                                               ; preds = %39
  %43 = load i32, i32* %2, align 4
  %44 = add nsw i32 %43, 1
  %45 = load i32, i32* %1, align 4
  %46 = icmp eq i32 %44, %45
  br i1 %46, label %47, label %49

47:                                               ; preds = %42, %39
  %48 = call i32 (i8*, ...) @printf(i8* getelementptr inbounds ([3 x i8], [3 x i8]* @.str.1, i64 0, i64 0))
  br label %103

49:                                               ; preds = %42
  %50 = getelementptr inbounds [301 x i32], [301 x i32]* %5, i64 0, i64 0
  %51 = load i32, i32* %50, align 16
  store i32 %51, i32* %3, align 4
  store i32 0, i32* %4, align 4
  store i32 1, i32* %1, align 4
  br label %52

52:                                               ; preds = %69, %49
  %53 = load i32, i32* %1, align 4
  %54 = load i32, i32* %6, align 4
  %55 = icmp slt i32 %53, %54
  br i1 %55, label %56, label %72

56:                                               ; preds = %52
  %57 = load i32, i32* %3, align 4
  %58 = load i32, i32* %1, align 4
  %59 = sext i32 %58 to i64
  %60 = getelementptr inbounds [301 x i32], [301 x i32]* %5, i64 0, i64 %59
  %61 = load i32, i32* %60, align 4
  %62 = icmp slt i32 %57, %61
  br i1 %62, label %63, label %68

63:                                               ; preds = %56
  %64 = load i32, i32* %1, align 4
  %65 = sext i32 %64 to i64
  %66 = getelementptr inbounds [301 x i32], [301 x i32]* %5, i64 0, i64 %65
  %67 = load i32, i32* %66, align 4
  store i32 %67, i32* %3, align 4
  br label %68

68:                                               ; preds = %63, %56
  br label %69

69:                                               ; preds = %68
  %70 = load i32, i32* %1, align 4
  %71 = add nsw i32 %70, 1
  store i32 %71, i32* %1, align 4
  br label %52

72:                                               ; preds = %52
  store i32 0, i32* %1, align 4
  br label %73

73:                                               ; preds = %97, %72
  %74 = load i32, i32* %1, align 4
  %75 = load i32, i32* %6, align 4
  %76 = icmp slt i32 %74, %75
  br i1 %76, label %77, label %100

77:                                               ; preds = %73
  %78 = load i32, i32* %4, align 4
  %79 = load i32, i32* %1, align 4
  %80 = sext i32 %79 to i64
  %81 = getelementptr inbounds [301 x i32], [301 x i32]* %5, i64 0, i64 %80
  %82 = load i32, i32* %81, align 4
  %83 = icmp slt i32 %78, %82
  br i1 %83, label %84, label %96

84:                                               ; preds = %77
  %85 = load i32, i32* %1, align 4
  %86 = sext i32 %85 to i64
  %87 = getelementptr inbounds [301 x i32], [301 x i32]* %5, i64 0, i64 %86
  %88 = load i32, i32* %87, align 4
  %89 = load i32, i32* %3, align 4
  %90 = icmp ne i32 %88, %89
  br i1 %90, label %91, label %96

91:                                               ; preds = %84
  %92 = load i32, i32* %1, align 4
  %93 = sext i32 %92 to i64
  %94 = getelementptr inbounds [301 x i32], [301 x i32]* %5, i64 0, i64 %93
  %95 = load i32, i32* %94, align 4
  store i32 %95, i32* %4, align 4
  br label %96

96:                                               ; preds = %91, %84, %77
  br label %97

97:                                               ; preds = %96
  %98 = load i32, i32* %1, align 4
  %99 = add nsw i32 %98, 1
  store i32 %99, i32* %1, align 4
  br label %73

100:                                              ; preds = %73
  %101 = load i32, i32* %4, align 4
  %102 = call i32 (i8*, ...) @printf(i8* getelementptr inbounds ([3 x i8], [3 x i8]* @.str, i64 0, i64 0), i32 %101)
  br label %103

103:                                              ; preds = %100, %47
  ret void
}

declare dso_local i32 @__isoc99_scanf(i8*, ...) #1

declare dso_local i32 @getchar() #1

declare dso_local i32 @printf(i8*, ...) #1


!llvm.module.flags = !{!0}
!llvm.ident = !{!1}

!0 = !{i32 1, !"wchar_size", i32 4}
!1 = !{!"clang version 10.0.0-4ubuntu1 "}
